target datalayout = "e-m:e-p270:32:32-p271:32:32-p272:64:64-i64:64-i128:128-f80:128-n8:16:32:64-S128"
target triple = "x86_64-pc-linux-gnu"

%struct.strbuf = type { i64, i64, ptr }
%struct.note_data = type { i32, i32, ptr, %struct.strbuf, ptr, i64, i64 }
%struct.option = type { i32, i32, ptr, ptr, ptr, ptr, i32, ptr, i64, ptr, i64, ptr }
%struct.note_msg = type { i32, %struct.strbuf }

@.str.44 = private unnamed_addr constant [16 x i8] c"builtin/notes.c\00", align 1
@.str.49 = private unnamed_addr constant [41 x i8] c"option callback does not expect negation\00", align 1
@.str.50 = private unnamed_addr constant [33 x i8] c"negative growth in ALLOC_GROW_BY\00", align 1
@.str.51 = private unnamed_addr constant [27 x i8] c"size_t overflow: %lu * %lu\00", align 1

; Function Attrs: inlinehint nounwind uwtable
define internal i64 @st_mult(i64 noundef %0, i64 noundef %1) #3 {
  %3 = alloca i64, align 8
  %4 = alloca i64, align 8
  store i64 %0, ptr %3, align 8, !tbaa !42
  store i64 %1, ptr %4, align 8, !tbaa !42
  %5 = load i64, ptr %3, align 8, !tbaa !42
  %6 = icmp ne i64 %5, 0
  br i1 %6, label %7, label %15

7:                                                ; preds = %2
  %8 = load i64, ptr %4, align 8, !tbaa !42
  %9 = load i64, ptr %3, align 8, !tbaa !42
  %10 = udiv i64 -1, %9
  %11 = icmp ugt i64 %8, %10
  br i1 %11, label %12, label %15

12:                                               ; preds = %7
  %13 = load i64, ptr %3, align 8, !tbaa !42
  %14 = load i64, ptr %4, align 8, !tbaa !42
  call void (ptr, ...) @die(ptr noundef @.str.51, i64 noundef %13, i64 noundef %14) #12
  unreachable

15:                                               ; preds = %7, %2
  %16 = load i64, ptr %3, align 8, !tbaa !42
  %17 = load i64, ptr %4, align 8, !tbaa !42
  %18 = mul i64 %16, %17
  ret i64 %18
}

; Function Attrs: inlinehint nounwind uwtable
define internal void @strbuf_addstr(ptr noundef %0, ptr noundef %1) #3 {
  %3 = alloca ptr, align 8
  %4 = alloca ptr, align 8
  store ptr %0, ptr %3, align 8, !tbaa !59
  store ptr %1, ptr %4, align 8, !tbaa !11
  %5 = load ptr, ptr %3, align 8, !tbaa !59
  %6 = load ptr, ptr %4, align 8, !tbaa !11
  %7 = load ptr, ptr %4, align 8, !tbaa !11
  %8 = call i64 @strlen(ptr noundef %7) #13
  call void @strbuf_add(ptr noundef %5, ptr noundef %6, i64 noundef %8)
  ret void
}

; Function Attrs: nounwind uwtable
define internal i32 @parse_msg_arg(ptr noundef %0, ptr noundef %1, i32 noundef %2) #0 {
  %4 = alloca ptr, align 8
  %5 = alloca ptr, align 8
  %6 = alloca i32, align 4
  %7 = alloca ptr, align 8
  %8 = alloca ptr, align 8
  %9 = alloca i64, align 8
  store ptr %0, ptr %4, align 8, !tbaa !66
  store ptr %1, ptr %5, align 8, !tbaa !11
  store i32 %2, ptr %6, align 4, !tbaa !4
  call void @llvm.lifetime.start.p0(i64 8, ptr %7) #11
  %10 = load ptr, ptr %4, align 8, !tbaa !66
  %11 = getelementptr inbounds nuw %struct.option, ptr %10, i32 0, i32 3
  %12 = load ptr, ptr %11, align 8, !tbaa !21
  store ptr %12, ptr %7, align 8, !tbaa !68
  call void @llvm.lifetime.start.p0(i64 8, ptr %8) #11
  %13 = call ptr @xmalloc(i64 noundef 32)
  store ptr %13, ptr %8, align 8, !tbaa !70
  br label %14

14:                                               ; preds = %3
  %15 = load i32, ptr %6, align 4, !tbaa !4
  %16 = icmp ne i32 %15, 0
  br i1 %16, label %17, label %18

17:                                               ; preds = %14
  call void (ptr, i32, ptr, ...) @BUG_fl(ptr noundef @.str.44, i32 noundef 277, ptr noundef @.str.49) #12
  unreachable

18:                                               ; preds = %14
  br label %19

19:                                               ; preds = %18
  br label %20

20:                                               ; preds = %19
  %21 = load ptr, ptr %8, align 8, !tbaa !70
  %22 = getelementptr inbounds nuw %struct.note_msg, ptr %21, i32 0, i32 1
  %23 = load ptr, ptr %5, align 8, !tbaa !11
  %24 = call i64 @strlen(ptr noundef %23) #13
  call void @strbuf_init(ptr noundef %22, i64 noundef %24)
  %25 = load ptr, ptr %8, align 8, !tbaa !70
  %26 = getelementptr inbounds nuw %struct.note_msg, ptr %25, i32 0, i32 1
  %27 = load ptr, ptr %5, align 8, !tbaa !11
  call void @strbuf_addstr(ptr noundef %26, ptr noundef %27)
  br label %28

28:                                               ; preds = %20
  call void @llvm.lifetime.start.p0(i64 8, ptr %9) #11
  %29 = load ptr, ptr %7, align 8, !tbaa !68
  %30 = getelementptr inbounds nuw %struct.note_data, ptr %29, i32 0, i32 5
  %31 = load i64, ptr %30, align 8, !tbaa !36
  %32 = add i64 %31, 1
  store i64 %32, ptr %9, align 8, !tbaa !42
  %33 = load i64, ptr %9, align 8, !tbaa !42
  %34 = load ptr, ptr %7, align 8, !tbaa !68
  %35 = getelementptr inbounds nuw %struct.note_data, ptr %34, i32 0, i32 5
  %36 = load i64, ptr %35, align 8, !tbaa !36
  %37 = icmp ult i64 %33, %36
  br i1 %37, label %38, label %39

38:                                               ; preds = %28
  call void (ptr, i32, ptr, ...) @BUG_fl(ptr noundef @.str.44, i32 noundef 281, ptr noundef @.str.50) #12
  unreachable

39:                                               ; preds = %28
  br label %40

40:                                               ; preds = %39
  %41 = load i64, ptr %9, align 8, !tbaa !42
  %42 = load ptr, ptr %7, align 8, !tbaa !68
  %43 = getelementptr inbounds nuw %struct.note_data, ptr %42, i32 0, i32 6
  %44 = load i64, ptr %43, align 8, !tbaa !72
  %45 = icmp ugt i64 %41, %44
  br i1 %45, label %46, label %79

46:                                               ; preds = %40
  %47 = load ptr, ptr %7, align 8, !tbaa !68
  %48 = getelementptr inbounds nuw %struct.note_data, ptr %47, i32 0, i32 6
  %49 = load i64, ptr %48, align 8, !tbaa !72
  %50 = add i64 %49, 16
  %51 = mul i64 %50, 3
  %52 = udiv i64 %51, 2
  %53 = load i64, ptr %9, align 8, !tbaa !42
  %54 = icmp ult i64 %52, %53
  br i1 %54, label %55, label %59

55:                                               ; preds = %46
  %56 = load i64, ptr %9, align 8, !tbaa !42
  %57 = load ptr, ptr %7, align 8, !tbaa !68
  %58 = getelementptr inbounds nuw %struct.note_data, ptr %57, i32 0, i32 6
  store i64 %56, ptr %58, align 8, !tbaa !72
  br label %68

59:                                               ; preds = %46
  %60 = load ptr, ptr %7, align 8, !tbaa !68
  %61 = getelementptr inbounds nuw %struct.note_data, ptr %60, i32 0, i32 6
  %62 = load i64, ptr %61, align 8, !tbaa !72
  %63 = add i64 %62, 16
  %64 = mul i64 %63, 3
  %65 = udiv i64 %64, 2
  %66 = load ptr, ptr %7, align 8, !tbaa !68
  %67 = getelementptr inbounds nuw %struct.note_data, ptr %66, i32 0, i32 6
  store i64 %65, ptr %67, align 8, !tbaa !72
  br label %68

68:                                               ; preds = %59, %55
  %69 = load ptr, ptr %7, align 8, !tbaa !68
  %70 = getelementptr inbounds nuw %struct.note_data, ptr %69, i32 0, i32 4
  %71 = load ptr, ptr %70, align 8, !tbaa !73
  %72 = load ptr, ptr %7, align 8, !tbaa !68
  %73 = getelementptr inbounds nuw %struct.note_data, ptr %72, i32 0, i32 6
  %74 = load i64, ptr %73, align 8, !tbaa !72
  %75 = call i64 @st_mult(i64 noundef 8, i64 noundef %74)
  %76 = call ptr @xrealloc(ptr noundef %71, i64 noundef %75)
  %77 = load ptr, ptr %7, align 8, !tbaa !68
  %78 = getelementptr inbounds nuw %struct.note_data, ptr %77, i32 0, i32 4
  store ptr %76, ptr %78, align 8, !tbaa !73
  br label %79

79:                                               ; preds = %68, %40
  br label %80

80:                                               ; preds = %79
  br label %81

81:                                               ; preds = %80
  %82 = load ptr, ptr %7, align 8, !tbaa !68
  %83 = getelementptr inbounds nuw %struct.note_data, ptr %82, i32 0, i32 4
  %84 = load ptr, ptr %83, align 8, !tbaa !73
  %85 = load ptr, ptr %7, align 8, !tbaa !68
  %86 = getelementptr inbounds nuw %struct.note_data, ptr %85, i32 0, i32 5
  %87 = load i64, ptr %86, align 8, !tbaa !36
  %88 = getelementptr inbounds nuw ptr, ptr %84, i64 %87
  call void @llvm.memset.p0.i64(ptr align 8 %88, i8 0, i64 8, i1 false)
  %89 = load i64, ptr %9, align 8, !tbaa !42
  %90 = load ptr, ptr %7, align 8, !tbaa !68
  %91 = getelementptr inbounds nuw %struct.note_data, ptr %90, i32 0, i32 5
  store i64 %89, ptr %91, align 8, !tbaa !36
  call void @llvm.lifetime.end.p0(i64 8, ptr %9) #11
  br label %92

92:                                               ; preds = %81
  br label %93

93:                                               ; preds = %92
  %94 = load ptr, ptr %8, align 8, !tbaa !70
  %95 = load ptr, ptr %7, align 8, !tbaa !68
  %96 = getelementptr inbounds nuw %struct.note_data, ptr %95, i32 0, i32 4
  %97 = load ptr, ptr %96, align 8, !tbaa !73
  %98 = load ptr, ptr %7, align 8, !tbaa !68
  %99 = getelementptr inbounds nuw %struct.note_data, ptr %98, i32 0, i32 5
  %100 = load i64, ptr %99, align 8, !tbaa !36
  %101 = sub i64 %100, 1
  %102 = getelementptr inbounds nuw ptr, ptr %97, i64 %101
  store ptr %94, ptr %102, align 8, !tbaa !70
  %103 = load ptr, ptr %8, align 8, !tbaa !70
  %104 = getelementptr inbounds nuw %struct.note_msg, ptr %103, i32 0, i32 0
  store i32 1, ptr %104, align 8, !tbaa !74
  call void @llvm.lifetime.end.p0(i64 8, ptr %8) #11
  call void @llvm.lifetime.end.p0(i64 8, ptr %7) #11
  ret i32 0
}