; Function Attrs: nounwind uwtable
define internal noundef i32 @parse_msg_arg(ptr noundef readonly captures(none) %0, ptr noundef %1, i32 noundef %2) #0 {
  %4 = getelementptr inbounds nuw i8, ptr %0, i64 16
  %5 = load ptr, ptr %4, align 8, !tbaa !16
  %6 = tail call ptr @xmalloc(i64 noundef 32) #16
  %.not = icmp eq i32 %2, 0
  br i1 %.not, label %8, label %7

7:                                                ; preds = %3
  tail call void (ptr, i32, ptr, ...) @BUG_fl(ptr noundef nonnull @.str.44, i32 noundef 277, ptr noundef nonnull @.str.49) #17
  unreachable

8:                                                ; preds = %3
  %9 = getelementptr inbounds nuw i8, ptr %6, i64 8
  %10 = tail call i64 @strlen(ptr noundef nonnull dereferenceable(1) %1) #18
  tail call void @strbuf_init(ptr noundef nonnull %9, i64 noundef %10) #16
  %11 = tail call i64 @strlen(ptr noundef nonnull dereferenceable(1) %1) #18
  tail call void @strbuf_add(ptr noundef nonnull %9, ptr noundef nonnull %1, i64 noundef %11) #16
  %12 = getelementptr inbounds nuw i8, ptr %5, i64 48
  %13 = load i64, ptr %12, align 8, !tbaa !28
  %14 = add i64 %13, 1
  %15 = icmp eq i64 %13, -1
  br i1 %15, label %16, label %17

16:                                               ; preds = %8
  tail call void (ptr, i32, ptr, ...) @BUG_fl(ptr noundef nonnull @.str.44, i32 noundef 281, ptr noundef nonnull @.str.50) #17
  unreachable

17:                                               ; preds = %8
  %18 = getelementptr inbounds nuw i8, ptr %5, i64 56
  %19 = load i64, ptr %18, align 8, !tbaa !79
  %20 = icmp ugt i64 %14, %19
  br i1 %20, label %21, label %._crit_edge

._crit_edge:                                      ; preds = %17
  %.phi.trans.insert = getelementptr inbounds nuw i8, ptr %5, i64 40
  %.pre = load ptr, ptr %.phi.trans.insert, align 8, !tbaa !80
  br label %31

21:                                               ; preds = %17
  %22 = mul i64 %19, 3
  %23 = add i64 %22, 48
  %24 = lshr i64 %23, 1
  %. = tail call i64 @llvm.umax.i64(i64 %24, i64 %14)
  store i64 %., ptr %18, align 8, !tbaa !79
  %25 = icmp ugt i64 %., 2305843009213693951
  br i1 %25, label %26, label %st_mult.exit

26:                                               ; preds = %21
  tail call void (ptr, ...) @die(ptr noundef nonnull @.str.51, i64 noundef 8, i64 noundef %.) #17
  unreachable

st_mult.exit:                                     ; preds = %21
  %27 = getelementptr inbounds nuw i8, ptr %5, i64 40
  %28 = load ptr, ptr %27, align 8, !tbaa !80
  %29 = shl nuw i64 %., 3
  %30 = tail call ptr @xrealloc(ptr noundef %28, i64 noundef %29) #16
  store ptr %30, ptr %27, align 8, !tbaa !80
  %.pre30 = load i64, ptr %12, align 8, !tbaa !28
  br label %31

31:                                               ; preds = %._crit_edge, %st_mult.exit
  %32 = phi i64 [ %13, %._crit_edge ], [ %.pre30, %st_mult.exit ]
  %33 = phi ptr [ %.pre, %._crit_edge ], [ %30, %st_mult.exit ]
  %34 = getelementptr inbounds nuw i8, ptr %5, i64 40
  %35 = getelementptr inbounds nuw ptr, ptr %33, i64 %32
  store i64 0, ptr %35, align 8
  store i64 %14, ptr %12, align 8, !tbaa !28
  %36 = load ptr, ptr %34, align 8, !tbaa !80
  %37 = getelementptr inbounds nuw ptr, ptr %36, i64 %13
  store ptr %6, ptr %37, align 8, !tbaa !81
  store i32 1, ptr %6, align 8, !tbaa !83
  ret i32 0
}